target datalayout = "e-m:e-p270:32:32-p271:32:32-p272:64:64-i64:64-i128:128-f80:128-n8:16:32:64-S128"
target triple = "x86_64-pc-linux-gnu"

%struct.stat = type { i64, i64, i64, i32, i32, i32, i32, i64, i64, i64, i64, %struct.timespec, %struct.timespec, %struct.timespec, [3 x i64] }
%struct.timespec = type { i64, i64 }

@.str.32 = private unnamed_addr constant [13 x i8] c"%-70s %16lu\0A\00", align 1

; Function Attrs: nounwind uwtable
define internal void @dir_file_stats_objects(ptr noundef %0, i64 noundef %1, ptr noundef %2, ptr noundef %3) #0 {
  %5 = alloca ptr, align 8
  %6 = alloca i64, align 8
  %7 = alloca ptr, align 8
  %8 = alloca ptr, align 8
  %9 = alloca ptr, align 8
  %10 = alloca %struct.stat, align 8
  store ptr %0, ptr %5, align 8, !tbaa !9
  store i64 %1, ptr %6, align 8, !tbaa !17
  store ptr %2, ptr %7, align 8, !tbaa !9
  store ptr %3, ptr %8, align 8, !tbaa !16
  call void @llvm.lifetime.start.p0(i64 8, ptr %9) #9
  %11 = load ptr, ptr %8, align 8, !tbaa !16
  store ptr %11, ptr %9, align 8, !tbaa !27
  call void @llvm.lifetime.start.p0(i64 144, ptr %10) #9
  %12 = load ptr, ptr %5, align 8, !tbaa !9
  %13 = call i32 @stat64(ptr noundef %12, ptr noundef %10) #9
  %14 = icmp ne i32 %13, 0
  br i1 %14, label %20, label %15

15:                                               ; preds = %4
  %16 = load ptr, ptr %9, align 8, !tbaa !27
  %17 = load ptr, ptr %7, align 8, !tbaa !9
  %18 = getelementptr inbounds nuw %struct.stat, ptr %10, i32 0, i32 8
  %19 = load i64, ptr %18, align 8, !tbaa !97
  call void (ptr, ptr, ...) @strbuf_addf(ptr noundef %16, ptr noundef @.str.32, ptr noundef %17, i64 noundef %19)
  br label %20

20:                                               ; preds = %15, %4
  call void @llvm.lifetime.end.p0(i64 144, ptr %10) #9
  call void @llvm.lifetime.end.p0(i64 8, ptr %9) #9
  ret void
}