; Function Attrs: nounwind uwtable
define internal void @dir_file_stats_objects(ptr noundef readonly captures(none) %0, i64 %1, ptr noundef %2, ptr noundef %3) #0 {
  %5 = alloca %struct.stat, align 8
  call void @llvm.lifetime.start.p0(i64 144, ptr nonnull %5) #12
  %6 = call i32 @stat64(ptr noundef %0, ptr noundef nonnull %5) #12
  %.not = icmp eq i32 %6, 0
  br i1 %.not, label %7, label %10

7:                                                ; preds = %4
  %8 = getelementptr inbounds nuw i8, ptr %5, i64 48
  %9 = load i64, ptr %8, align 8, !tbaa !81
  tail call void (ptr, ptr, ...) @strbuf_addf(ptr noundef %3, ptr noundef nonnull @.str.32, ptr noundef %2, i64 noundef %9) #12
  br label %10

10:                                               ; preds = %7, %4
  call void @llvm.lifetime.end.p0(i64 144, ptr nonnull %5) #12
  ret void
}